; Function Attrs: mustprogress uwtable
define void @_ZN8facebook5velox4exec7EvalCtx22setVeloxExceptionErrorEiRKNSt15__exception_ptr13exception_ptrE(ptr nocapture noundef nonnull align 8 dereferenceable(104) %this, i32 noundef %index, ptr nocapture noundef nonnull readonly align 8 dereferenceable(8) %exceptionPtr) local_unnamed_addr #0 align 2 personality ptr @__gxx_personality_v0 {
entry:
  %agg.tmp = alloca %"class.std::__exception_ptr::exception_ptr", align 8
  %throwOnError_ = getelementptr inbounds i8, ptr %this, i64 73
  %0 = load i8, ptr %throwOnError_, align 1
  %1 = and i8 %0, 1
  %tobool.not = icmp eq i8 %1, 0
  br i1 %tobool.not, label %if.end, label %if.then

if.then:                                          ; preds = %entry
  %2 = load ptr, ptr %exceptionPtr, align 8
  store ptr %2, ptr %agg.tmp, align 8
  %tobool.not.i = icmp eq ptr %2, null
  br i1 %tobool.not.i, label %_ZNSt15__exception_ptr13exception_ptrC2ERKS0_.exit, label %if.then.i

if.then.i:                                        ; preds = %if.then
  call void @_ZNSt15__exception_ptr13exception_ptr9_M_addrefEv(ptr noundef nonnull align 8 dereferenceable(8) %agg.tmp) #28
  br label %_ZNSt15__exception_ptr13exception_ptrC2ERKS0_.exit

_ZNSt15__exception_ptr13exception_ptrC2ERKS0_.exit: ; preds = %if.then, %if.then.i
  invoke void @_ZSt17rethrow_exceptionNSt15__exception_ptr13exception_ptrE(ptr noundef nonnull %agg.tmp) #32
          to label %invoke.cont unwind label %lpad

invoke.cont:                                      ; preds = %_ZNSt15__exception_ptr13exception_ptrC2ERKS0_.exit
  unreachable

lpad:                                             ; preds = %_ZNSt15__exception_ptr13exception_ptrC2ERKS0_.exit
  %3 = landingpad { ptr, i32 }
          cleanup
  %4 = load ptr, ptr %agg.tmp, align 8
  %tobool.not.i2 = icmp eq ptr %4, null
  br i1 %tobool.not.i2, label %_ZNSt15__exception_ptr13exception_ptrD2Ev.exit, label %if.then.i3

if.then.i3:                                       ; preds = %lpad
  call void @_ZNSt15__exception_ptr13exception_ptr10_M_releaseEv(ptr noundef nonnull align 8 dereferenceable(8) %agg.tmp) #28
  br label %_ZNSt15__exception_ptr13exception_ptrD2Ev.exit

_ZNSt15__exception_ptr13exception_ptrD2Ev.exit:   ; preds = %lpad, %if.then.i3
  resume { ptr, i32 } %3

if.end:                                           ; preds = %entry
  %errors_ = getelementptr inbounds i8, ptr %this, i64 88
  tail call void @_ZNK8facebook5velox4exec7EvalCtx8addErrorEiRKNSt15__exception_ptr13exception_ptrERSt10shared_ptrINS0_10FlatVectorIS7_IvEEEE(ptr noundef nonnull align 8 dereferenceable(104) %this, i32 noundef %index, ptr noundef nonnull align 8 dereferenceable(8) %exceptionPtr, ptr noundef nonnull align 8 dereferenceable(16) %errors_)
  ret void
}